; Function Attrs: mustprogress uwtable
define hidden i32 @_ZN1q6solver10specializeEP10quantifier(ptr noundef nonnull align 8 dereferenceable(3144) %this, ptr noundef %q) local_unnamed_addr #3 align 2 personality ptr @__gxx_personality_v0 {
entry:
  %mk_var = alloca %"class.std::function.350", align 8
  %_M_manager.i.i = getelementptr inbounds i8, ptr %mk_var, i64 16
  %_M_invoker.i = getelementptr inbounds i8, ptr %mk_var, i64 24
  %0 = getelementptr inbounds i8, ptr %mk_var, i64 8
  store i64 0, ptr %0, align 8
  %1 = ptrtoint ptr %this to i64
  store i64 %1, ptr %mk_var, align 8
  store ptr @"_ZNSt17_Function_handlerIFP4exprP10quantifierjEZN1q6solver10specializeES3_E3$_0E9_M_invokeERKSt9_Any_dataOS3_Oj", ptr %_M_invoker.i, align 8
  store ptr @"_ZNSt17_Function_handlerIFP4exprP10quantifierjEZN1q6solver10specializeES3_E3$_0E10_M_managerERSt9_Any_dataRKS9_St18_Manager_operation", ptr %_M_manager.i.i, align 8
  %m_kind.i.i.i = getelementptr inbounds i8, ptr %q, i64 4
  %bf.load.i.i.i = load i32, ptr %m_kind.i.i.i, align 4
  %bf.clear.i.i.i = and i32 %bf.load.i.i.i, 65535
  %cmp.i.i = icmp eq i32 %bf.clear.i.i.i, 2
  br i1 %cmp.i.i, label %land.rhs.i, label %invoke.cont

land.rhs.i:                                       ; preds = %entry
  %m_kind.i.i = getelementptr inbounds i8, ptr %q, i64 16
  %2 = load i32, ptr %m_kind.i.i, align 8
  %cmp.i = icmp eq i32 %2, 1
  br label %invoke.cont

invoke.cont:                                      ; preds = %land.rhs.i, %entry
  %3 = phi i1 [ false, %entry ], [ %cmp.i, %land.rhs.i ]
  %call3 = invoke i32 @_ZN1q6solver11instantiateEP10quantifierbRSt8functionIFP4exprS2_jEE(ptr noundef nonnull align 8 dereferenceable(3144) %this, ptr noundef nonnull %q, i1 noundef zeroext %3, ptr noundef nonnull align 8 dereferenceable(32) %mk_var)
          to label %invoke.cont2 unwind label %lpad

invoke.cont2:                                     ; preds = %invoke.cont
  %4 = load ptr, ptr %_M_manager.i.i, align 8
  %tobool.not.i.i = icmp eq ptr %4, null
  br i1 %tobool.not.i.i, label %_ZNSt8functionIFP4exprP10quantifierjEED2Ev.exit, label %if.then.i.i

if.then.i.i:                                      ; preds = %invoke.cont2
  %call.i.i = invoke noundef zeroext i1 %4(ptr noundef nonnull align 8 dereferenceable(16) %mk_var, ptr noundef nonnull align 8 dereferenceable(16) %mk_var, i32 noundef 3)
          to label %_ZNSt8functionIFP4exprP10quantifierjEED2Ev.exit unwind label %terminate.lpad.i.i

terminate.lpad.i.i:                               ; preds = %if.then.i.i
  %5 = landingpad { ptr, i32 }
          catch ptr null
  %6 = extractvalue { ptr, i32 } %5, 0
  call void @__clang_call_terminate(ptr %6) #19
  unreachable

_ZNSt8functionIFP4exprP10quantifierjEED2Ev.exit:  ; preds = %invoke.cont2, %if.then.i.i
  ret i32 %call3

lpad:                                             ; preds = %invoke.cont
  %7 = landingpad { ptr, i32 }
          cleanup
  %8 = load ptr, ptr %_M_manager.i.i, align 8
  %tobool.not.i.i4 = icmp eq ptr %8, null
  br i1 %tobool.not.i.i4, label %_ZNSt8functionIFP4exprP10quantifierjEED2Ev.exit8, label %if.then.i.i5

if.then.i.i5:                                     ; preds = %lpad
  %call.i.i6 = invoke noundef zeroext i1 %8(ptr noundef nonnull align 8 dereferenceable(16) %mk_var, ptr noundef nonnull align 8 dereferenceable(16) %mk_var, i32 noundef 3)
          to label %_ZNSt8functionIFP4exprP10quantifierjEED2Ev.exit8 unwind label %terminate.lpad.i.i7

terminate.lpad.i.i7:                              ; preds = %if.then.i.i5
  %9 = landingpad { ptr, i32 }
          catch ptr null
  %10 = extractvalue { ptr, i32 } %9, 0
  call void @__clang_call_terminate(ptr %10) #19
  unreachable

_ZNSt8functionIFP4exprP10quantifierjEED2Ev.exit8: ; preds = %lpad, %if.then.i.i5
  resume { ptr, i32 } %7
}